target datalayout = "e-m:e-p270:32:32-p271:32:32-p272:64:64-i64:64-i128:128-f80:128-n8:16:32:64-S128"
target triple = "x86_64-pc-linux-gnu"

%struct.OperationConfig = type { i8, ptr, ptr, ptr, ptr, ptr, ptr, i8, i8, i8, i64, i8, i8, i8, i8, i8, ptr, i8, ptr, i8, ptr, i64, ptr, %struct.dynbuf, ptr, ptr, i64, i64, i64, i64, ptr, ptr, ptr, ptr, i64, i64, i16, ptr, i64, i64, i64, i64, ptr, ptr, ptr, ptr, ptr, ptr, ptr, ptr, ptr, ptr, ptr, ptr, ptr, ptr, i32, ptr, ptr, ptr, ptr, i8, ptr, i8, i8, i8, i8, i8, i8, i8, i8, i8, i8, i8, i8, i8, i8, ptr, ptr, ptr, ptr, ptr, ptr, i64, ptr, ptr, ptr, ptr, ptr, ptr, ptr, ptr, ptr, ptr, ptr, ptr, ptr, ptr, ptr, ptr, ptr, ptr, ptr, ptr, ptr, ptr, ptr, ptr, ptr, ptr, ptr, ptr, ptr, ptr, i8, ptr, ptr, ptr, ptr, i64, i8, i8, i8, i8, i8, i8, i8, i8, i8, i8, i8, i8, i8, i8, i8, i8, i8, i8, i8, i8, ptr, ptr, ptr, ptr, i64, i64, i64, i64, i64, i32, i64, ptr, ptr, ptr, ptr, ptr, ptr, ptr, ptr, i32, i64, i64, i8, i8, i8, i8, i32, ptr, i8, i64, ptr, ptr, i8, i8, i64, i8, i8, i64, i64, ptr, ptr, i32, i64, i64, i8, i8, i8, i8, i8, i8, i8, i8, i64, i64, i8, i32, i8, i64, i8, i8, i8, i8, i8, i8, i8, i8, i8, ptr, i8, ptr, i8, i8, i8, i64, i8, i8, i8, i64, i8, ptr, i8, ptr, i32, i8, ptr, ptr, ptr, %struct.State, i8, i8, ptr, ptr, ptr }
%struct.dynbuf = type { ptr, i64, i64, i64 }
%struct.State = type { ptr, ptr, ptr, ptr, ptr, ptr, i64, i64, i64, i64 }
%struct.per_transfer = type { ptr, ptr, ptr, ptr, ptr, i64, i64, i64, i64, %struct.timeval, %struct.timeval, ptr, i32, ptr, i32, %struct.ProgressData, %struct.OutStruct, %struct.OutStruct, %struct.OutStruct, %struct.HdrCbData, i64, i64, i64, i64, i64, i64, i64, i64, i8, i8, ptr, ptr, i8, i8, i8, i8, i8, i8 }
%struct.timeval = type { i64, i64 }
%struct.ProgressData = type { i32, i64, %struct.timeval, i32, ptr, i64, i32, i32, i32 }
%struct.OutStruct = type { ptr, i8, i8, i8, i8, ptr, i64, i64 }
%struct.HdrCbData = type { ptr, ptr, ptr, ptr, ptr, ptr, i8 }

@.str.32 = private unnamed_addr constant [50 x i8] c"(%d) Could not parse the URL, failed to set query\00", align 1

; Function Attrs: nounwind uwtable
define internal i32 @append2query(ptr noundef %0, ptr noundef %1, ptr noundef %2, ptr noundef %3) #0 {
  %5 = alloca ptr, align 8
  %6 = alloca ptr, align 8
  %7 = alloca ptr, align 8
  %8 = alloca ptr, align 8
  %9 = alloca i32, align 4
  %10 = alloca ptr, align 8
  %11 = alloca i32, align 4
  %12 = alloca ptr, align 8
  store ptr %0, ptr %5, align 8, !tbaa !18
  store ptr %1, ptr %6, align 8, !tbaa !4
  store ptr %2, ptr %7, align 8, !tbaa !53
  store ptr %3, ptr %8, align 8, !tbaa !24
  call void @llvm.lifetime.start.p0(i64 4, ptr %9) #10
  store i32 0, ptr %9, align 4, !tbaa !20
  call void @llvm.lifetime.start.p0(i64 8, ptr %10) #10
  %13 = call ptr @curl_url()
  store ptr %13, ptr %10, align 8, !tbaa !226
  %14 = load ptr, ptr %10, align 8, !tbaa !226
  %15 = icmp ne ptr %14, null
  br i1 %15, label %16, label %61

16:                                               ; preds = %4
  call void @llvm.lifetime.start.p0(i64 4, ptr %11) #10
  %17 = load ptr, ptr %10, align 8, !tbaa !226
  %18 = load ptr, ptr %7, align 8, !tbaa !53
  %19 = getelementptr inbounds nuw %struct.per_transfer, ptr %18, i32 0, i32 11
  %20 = load ptr, ptr %19, align 8, !tbaa !105
  %21 = call i32 @curl_url_set(ptr noundef %17, i32 noundef 0, ptr noundef %20, i32 noundef 512)
  store i32 %21, ptr %11, align 4, !tbaa !20
  %22 = load i32, ptr %11, align 4, !tbaa !20
  %23 = icmp ne i32 %22, 0
  br i1 %23, label %24, label %31

24:                                               ; preds = %16
  %25 = load i32, ptr %11, align 4, !tbaa !20
  %26 = call i32 @urlerr_cvt(i32 noundef %25)
  store i32 %26, ptr %9, align 4, !tbaa !20
  %27 = load ptr, ptr %5, align 8, !tbaa !18
  %28 = load i32, ptr %9, align 4, !tbaa !20
  call void (ptr, ptr, ...) @errorf(ptr noundef %27, ptr noundef @.str.32, i32 noundef %28)
  %29 = load ptr, ptr %6, align 8, !tbaa !4
  %30 = getelementptr inbounds nuw %struct.OperationConfig, ptr %29, i32 0, i32 215
  store i8 1, ptr %30, align 1, !tbaa !96
  br label %59

31:                                               ; preds = %16
  call void @llvm.lifetime.start.p0(i64 8, ptr %12) #10
  store ptr null, ptr %12, align 8, !tbaa !24
  %32 = load ptr, ptr %10, align 8, !tbaa !226
  %33 = load ptr, ptr %8, align 8, !tbaa !24
  %34 = call i32 @curl_url_set(ptr noundef %32, i32 noundef 8, ptr noundef %33, i32 noundef 256)
  store i32 %34, ptr %11, align 4, !tbaa !20
  %35 = load i32, ptr %11, align 4, !tbaa !20
  %36 = icmp ne i32 %35, 0
  br i1 %36, label %40, label %37

37:                                               ; preds = %31
  %38 = load ptr, ptr %10, align 8, !tbaa !226
  %39 = call i32 @curl_url_get(ptr noundef %38, i32 noundef 0, ptr noundef %12, i32 noundef 512)
  store i32 %39, ptr %11, align 4, !tbaa !20
  br label %40

40:                                               ; preds = %37, %31
  %41 = load i32, ptr %11, align 4, !tbaa !20
  %42 = icmp ne i32 %41, 0
  br i1 %42, label %43, label %46

43:                                               ; preds = %40
  %44 = load i32, ptr %11, align 4, !tbaa !20
  %45 = call i32 @urlerr_cvt(i32 noundef %44)
  store i32 %45, ptr %9, align 4, !tbaa !20
  br label %58

46:                                               ; preds = %40
  br label %47

47:                                               ; preds = %46
  %48 = load ptr, ptr %7, align 8, !tbaa !53
  %49 = getelementptr inbounds nuw %struct.per_transfer, ptr %48, i32 0, i32 11
  %50 = load ptr, ptr %49, align 8, !tbaa !105
  call void @free(ptr noundef %50) #10
  %51 = load ptr, ptr %7, align 8, !tbaa !53
  %52 = getelementptr inbounds nuw %struct.per_transfer, ptr %51, i32 0, i32 11
  store ptr null, ptr %52, align 8, !tbaa !105
  br label %53

53:                                               ; preds = %47
  br label %54

54:                                               ; preds = %53
  %55 = load ptr, ptr %12, align 8, !tbaa !24
  %56 = load ptr, ptr %7, align 8, !tbaa !53
  %57 = getelementptr inbounds nuw %struct.per_transfer, ptr %56, i32 0, i32 11
  store ptr %55, ptr %57, align 8, !tbaa !105
  br label %58

58:                                               ; preds = %54, %43
  call void @llvm.lifetime.end.p0(i64 8, ptr %12) #10
  br label %59

59:                                               ; preds = %58, %24
  %60 = load ptr, ptr %10, align 8, !tbaa !226
  call void @curl_url_cleanup(ptr noundef %60)
  call void @llvm.lifetime.end.p0(i64 4, ptr %11) #10
  br label %61

61:                                               ; preds = %59, %4
  %62 = load i32, ptr %9, align 4, !tbaa !20
  call void @llvm.lifetime.end.p0(i64 8, ptr %10) #10
  call void @llvm.lifetime.end.p0(i64 4, ptr %9) #10
  ret i32 %62
}