; Function Attrs: nounwind uwtable
define internal fastcc i32 @append2query(ptr noundef %0, ptr noundef nonnull writeonly captures(none) %1, ptr noundef captures(none) %2, ptr noundef %3) unnamed_addr #0 {
  %5 = alloca ptr, align 8
  %6 = tail call ptr @curl_url() #16
  %.not = icmp eq ptr %6, null
  br i1 %.not, label %24, label %7

7:                                                ; preds = %4
  %8 = getelementptr inbounds nuw i8, ptr %2, i64 104
  %9 = load ptr, ptr %8, align 8, !tbaa !95
  %10 = tail call i32 @curl_url_set(ptr noundef nonnull %6, i32 noundef 0, ptr noundef %9, i32 noundef 512) #16
  %.not22 = icmp eq i32 %10, 0
  br i1 %.not22, label %14, label %11

11:                                               ; preds = %7
  %12 = tail call i32 @urlerr_cvt(i32 noundef %10) #16
  tail call void (ptr, ptr, ...) @errorf(ptr noundef %0, ptr noundef nonnull @.str.32, i32 noundef %12) #16
  %13 = getelementptr inbounds nuw i8, ptr %1, i64 1273
  store i8 1, ptr %13, align 1, !tbaa !88
  br label %23

14:                                               ; preds = %7
  call void @llvm.lifetime.start.p0(i64 8, ptr nonnull %5) #16
  store ptr null, ptr %5, align 8, !tbaa !14
  %15 = tail call i32 @curl_url_set(ptr noundef nonnull %6, i32 noundef 8, ptr noundef %3, i32 noundef 256) #16
  %.not23 = icmp eq i32 %15, 0
  br i1 %.not23, label %16, label %.thread

16:                                               ; preds = %14
  %17 = call i32 @curl_url_get(ptr noundef nonnull %6, i32 noundef 0, ptr noundef nonnull %5, i32 noundef 512) #16
  %.not24 = icmp eq i32 %17, 0
  br i1 %.not24, label %19, label %.thread

.thread:                                          ; preds = %14, %16
  %.027 = phi i32 [ %17, %16 ], [ %15, %14 ]
  %18 = call i32 @urlerr_cvt(i32 noundef %.027) #16
  br label %22

19:                                               ; preds = %16
  %20 = load ptr, ptr %8, align 8, !tbaa !95
  call void @free(ptr noundef %20) #16
  %21 = load ptr, ptr %5, align 8, !tbaa !14
  store ptr %21, ptr %8, align 8, !tbaa !95
  br label %22

22:                                               ; preds = %19, %.thread
  %.2 = phi i32 [ %18, %.thread ], [ 0, %19 ]
  call void @llvm.lifetime.end.p0(i64 8, ptr nonnull %5) #16
  br label %23

23:                                               ; preds = %22, %11
  %.1 = phi i32 [ %12, %11 ], [ %.2, %22 ]
  call void @curl_url_cleanup(ptr noundef nonnull %6) #16
  br label %24

24:                                               ; preds = %23, %4
  %.018 = phi i32 [ %.1, %23 ], [ 0, %4 ]
  ret i32 %.018
}